target datalayout = "e-m:e-p270:32:32-p271:32:32-p272:64:64-i64:64-i128:128-f80:128-n8:16:32:64-S128"
target triple = "x86_64-pc-linux-gnu"

%struct.AVBPrint = type { ptr, i32, i32, i32, [1 x i8], [1000 x i8] }

; Function Attrs: inlinehint nounwind uwtable
define internal i32 @av_bprint_is_complete(ptr noundef %0) #7 {
  %2 = alloca ptr, align 8
  store ptr %0, ptr %2, align 8, !tbaa !46
  %3 = load ptr, ptr %2, align 8, !tbaa !46
  %4 = getelementptr inbounds nuw %struct.AVBPrint, ptr %3, i32 0, i32 1
  %5 = load i32, ptr %4, align 8, !tbaa !50
  %6 = load ptr, ptr %2, align 8, !tbaa !46
  %7 = getelementptr inbounds nuw %struct.AVBPrint, ptr %6, i32 0, i32 2
  %8 = load i32, ptr %7, align 4, !tbaa !51
  %9 = icmp ult i32 %5, %8
  %10 = zext i1 %9 to i32
  ret i32 %10
}

; Function Attrs: nounwind uwtable
define i32 @ff_smil_extract_next_text_chunk(ptr noundef %0, ptr noundef %1, ptr noundef %2) #0 {
  %4 = alloca i32, align 4
  %5 = alloca ptr, align 8
  %6 = alloca ptr, align 8
  %7 = alloca ptr, align 8
  %8 = alloca i32, align 4
  %9 = alloca i8, align 1
  %10 = alloca i32, align 4
  store ptr %0, ptr %5, align 8, !tbaa !4
  store ptr %1, ptr %6, align 8, !tbaa !46
  store ptr %2, ptr %7, align 8, !tbaa !27
  call void @llvm.lifetime.start.p0(i64 4, ptr %8) #9
  store i32 0, ptr %8, align 4, !tbaa !21
  call void @llvm.lifetime.start.p0(i64 1, ptr %9) #9
  %11 = load ptr, ptr %7, align 8, !tbaa !27
  %12 = load i8, ptr %11, align 1, !tbaa !22
  %13 = icmp ne i8 %12, 0
  br i1 %13, label %19, label %14

14:                                               ; preds = %3
  %15 = load ptr, ptr %5, align 8, !tbaa !4
  %16 = call i32 @ff_text_r8(ptr noundef %15)
  %17 = trunc i32 %16 to i8
  %18 = load ptr, ptr %7, align 8, !tbaa !27
  store i8 %17, ptr %18, align 1, !tbaa !22
  br label %19

19:                                               ; preds = %14, %3
  %20 = load ptr, ptr %7, align 8, !tbaa !27
  %21 = load i8, ptr %20, align 1, !tbaa !22
  %22 = icmp ne i8 %21, 0
  br i1 %22, label %24, label %23

23:                                               ; preds = %19
  store i32 0, ptr %4, align 4
  store i32 1, ptr %10, align 4
  br label %75

24:                                               ; preds = %19
  %25 = load ptr, ptr %7, align 8, !tbaa !27
  %26 = load i8, ptr %25, align 1, !tbaa !22
  %27 = sext i8 %26 to i32
  %28 = icmp eq i32 %27, 60
  %29 = select i1 %28, i32 62, i32 60
  %30 = trunc i32 %29 to i8
  store i8 %30, ptr %9, align 1, !tbaa !22
  br label %31

31:                                               ; preds = %57, %24
  %32 = load ptr, ptr %6, align 8, !tbaa !46
  %33 = load ptr, ptr %7, align 8, !tbaa !27
  %34 = load i8, ptr %33, align 1, !tbaa !22
  call void @av_bprint_chars(ptr noundef %32, i8 noundef signext %34, i32 noundef 1)
  %35 = load ptr, ptr %5, align 8, !tbaa !4
  %36 = call i32 @ff_text_r8(ptr noundef %35)
  %37 = trunc i32 %36 to i8
  %38 = load ptr, ptr %7, align 8, !tbaa !27
  store i8 %37, ptr %38, align 1, !tbaa !22
  %39 = load i32, ptr %8, align 4, !tbaa !21
  %40 = icmp eq i32 %39, 2147483647
  br i1 %40, label %41, label %42

41:                                               ; preds = %31
  store i32 -1094995529, ptr %4, align 4
  store i32 1, ptr %10, align 4
  br label %75

42:                                               ; preds = %31
  %43 = load i32, ptr %8, align 4, !tbaa !21
  %44 = add nsw i32 %43, 1
  store i32 %44, ptr %8, align 4, !tbaa !21
  br label %45

45:                                               ; preds = %42
  %46 = load ptr, ptr %7, align 8, !tbaa !27
  %47 = load i8, ptr %46, align 1, !tbaa !22
  %48 = sext i8 %47 to i32
  %49 = load i8, ptr %9, align 1, !tbaa !22
  %50 = sext i8 %49 to i32
  %51 = icmp ne i32 %48, %50
  br i1 %51, label %52, label %57

52:                                               ; preds = %45
  %53 = load ptr, ptr %7, align 8, !tbaa !27
  %54 = load i8, ptr %53, align 1, !tbaa !22
  %55 = sext i8 %54 to i32
  %56 = icmp ne i32 %55, 0
  br label %57

57:                                               ; preds = %52, %45
  %58 = phi i1 [ false, %45 ], [ %56, %52 ]
  br i1 %58, label %31, label %59, !llvm.loop !79

59:                                               ; preds = %57
  %60 = load i8, ptr %9, align 1, !tbaa !22
  %61 = sext i8 %60 to i32
  %62 = icmp eq i32 %61, 62
  br i1 %62, label %63, label %66

63:                                               ; preds = %59
  %64 = load ptr, ptr %6, align 8, !tbaa !46
  call void @av_bprint_chars(ptr noundef %64, i8 noundef signext 62, i32 noundef 1)
  %65 = load ptr, ptr %7, align 8, !tbaa !27
  store i8 0, ptr %65, align 1, !tbaa !22
  br label %66

66:                                               ; preds = %63, %59
  %67 = load ptr, ptr %6, align 8, !tbaa !46
  %68 = call i32 @av_bprint_is_complete(ptr noundef %67)
  %69 = icmp ne i32 %68, 0
  br i1 %69, label %70, label %72

70:                                               ; preds = %66
  %71 = load i32, ptr %8, align 4, !tbaa !21
  br label %73

72:                                               ; preds = %66
  br label %73

73:                                               ; preds = %72, %70
  %74 = phi i32 [ %71, %70 ], [ -12, %72 ]
  store i32 %74, ptr %4, align 4
  store i32 1, ptr %10, align 4
  br label %75

75:                                               ; preds = %73, %41, %23
  call void @llvm.lifetime.end.p0(i64 1, ptr %9) #9
  call void @llvm.lifetime.end.p0(i64 4, ptr %8) #9
  %76 = load i32, ptr %4, align 4
  ret i32 %76
}