; Function Attrs: nounwind uwtable
define i32 @ff_smil_extract_next_text_chunk(ptr noundef captures(none) %0, ptr noundef %1, ptr noundef captures(none) %2) local_unnamed_addr #0 {
  %4 = load i8, ptr %2, align 1, !tbaa !19
  %.not = icmp eq i8 %4, 0
  br i1 %.not, label %5, label %.thread

5:                                                ; preds = %3
  %6 = tail call i32 @ff_text_r8(ptr noundef %0)
  %7 = trunc i32 %6 to i8
  store i8 %7, ptr %2, align 1, !tbaa !19
  %.not22 = icmp eq i8 %7, 0
  br i1 %.not22, label %.loopexit, label %.thread

.thread:                                          ; preds = %3, %5
  %8 = phi i8 [ %7, %5 ], [ %4, %3 ]
  %9 = icmp eq i8 %8, 60
  %10 = select i1 %9, i32 62, i32 60
  br label %11

11:                                               ; preds = %16, %.thread
  %12 = phi i8 [ %8, %.thread ], [ %14, %16 ]
  %.019 = phi i32 [ 0, %.thread ], [ %17, %16 ]
  tail call void @av_bprint_chars(ptr noundef %1, i8 noundef signext %12, i32 noundef 1) #11
  %13 = tail call i32 @ff_text_r8(ptr noundef %0)
  %14 = trunc i32 %13 to i8
  store i8 %14, ptr %2, align 1, !tbaa !19
  %15 = icmp eq i32 %.019, 2147483647
  br i1 %15, label %.loopexit, label %16

16:                                               ; preds = %11
  %17 = add nuw nsw i32 %.019, 1
  %sext = shl i32 %13, 24
  %18 = ashr exact i32 %sext, 24
  %.not23 = icmp eq i32 %18, %10
  %.not24 = icmp eq i32 %sext, 0
  %or.cond = or i1 %.not24, %.not23
  br i1 %or.cond, label %.critedge, label %11, !llvm.loop !66

.critedge:                                        ; preds = %16
  br i1 %9, label %19, label %20

19:                                               ; preds = %.critedge
  tail call void @av_bprint_chars(ptr noundef %1, i8 noundef signext 62, i32 noundef 1) #11
  store i8 0, ptr %2, align 1, !tbaa !19
  br label %20

20:                                               ; preds = %19, %.critedge
  %21 = getelementptr i8, ptr %1, i64 8
  %.val = load i32, ptr %21, align 8, !tbaa !37
  %22 = getelementptr i8, ptr %1, i64 12
  %.val26 = load i32, ptr %22, align 4, !tbaa !39
  %.not28 = icmp ult i32 %.val, %.val26
  %23 = select i1 %.not28, i32 %17, i32 -12
  br label %.loopexit

.loopexit:                                        ; preds = %11, %5, %20
  %.0 = phi i32 [ %23, %20 ], [ 0, %5 ], [ -1094995529, %11 ]
  ret i32 %.0
}